target datalayout = "e-m:e-p270:32:32-p271:32:32-p272:64:64-i64:64-i128:128-f80:128-n8:16:32:64-S128"
target triple = "x86_64-pc-linux-gnu"

%struct.stbtt__csctx = type { i32, i32, float, float, float, float, i32, i32, i32, i32, ptr, i32 }

; Function Attrs: nounwind uwtable
define void @stbtt__csctx_rccurve_to(ptr noundef %0, float noundef %1, float noundef %2, float noundef %3, float noundef %4, float noundef %5, float noundef %6) #0 {
  %8 = alloca ptr, align 8
  %9 = alloca float, align 4
  %10 = alloca float, align 4
  %11 = alloca float, align 4
  %12 = alloca float, align 4
  %13 = alloca float, align 4
  %14 = alloca float, align 4
  %15 = alloca float, align 4
  %16 = alloca float, align 4
  %17 = alloca float, align 4
  %18 = alloca float, align 4
  store ptr %0, ptr %8, align 8, !tbaa !3
  store float %1, ptr %9, align 4, !tbaa !67
  store float %2, ptr %10, align 4, !tbaa !67
  store float %3, ptr %11, align 4, !tbaa !67
  store float %4, ptr %12, align 4, !tbaa !67
  store float %5, ptr %13, align 4, !tbaa !67
  store float %6, ptr %14, align 4, !tbaa !67
  call void @llvm.lifetime.start.p0(i64 4, ptr %15) #8
  %19 = load ptr, ptr %8, align 8, !tbaa !3
  %20 = getelementptr inbounds nuw %struct.stbtt__csctx, ptr %19, i32 0, i32 4
  %21 = load float, ptr %20, align 8, !tbaa !76
  %22 = load float, ptr %9, align 4, !tbaa !67
  %23 = fadd float %21, %22
  store float %23, ptr %15, align 4, !tbaa !67
  call void @llvm.lifetime.start.p0(i64 4, ptr %16) #8
  %24 = load ptr, ptr %8, align 8, !tbaa !3
  %25 = getelementptr inbounds nuw %struct.stbtt__csctx, ptr %24, i32 0, i32 5
  %26 = load float, ptr %25, align 4, !tbaa !78
  %27 = load float, ptr %10, align 4, !tbaa !67
  %28 = fadd float %26, %27
  store float %28, ptr %16, align 4, !tbaa !67
  call void @llvm.lifetime.start.p0(i64 4, ptr %17) #8
  %29 = load float, ptr %15, align 4, !tbaa !67
  %30 = load float, ptr %11, align 4, !tbaa !67
  %31 = fadd float %29, %30
  store float %31, ptr %17, align 4, !tbaa !67
  call void @llvm.lifetime.start.p0(i64 4, ptr %18) #8
  %32 = load float, ptr %16, align 4, !tbaa !67
  %33 = load float, ptr %12, align 4, !tbaa !67
  %34 = fadd float %32, %33
  store float %34, ptr %18, align 4, !tbaa !67
  %35 = load float, ptr %17, align 4, !tbaa !67
  %36 = load float, ptr %13, align 4, !tbaa !67
  %37 = fadd float %35, %36
  %38 = load ptr, ptr %8, align 8, !tbaa !3
  %39 = getelementptr inbounds nuw %struct.stbtt__csctx, ptr %38, i32 0, i32 4
  store float %37, ptr %39, align 8, !tbaa !76
  %40 = load float, ptr %18, align 4, !tbaa !67
  %41 = load float, ptr %14, align 4, !tbaa !67
  %42 = fadd float %40, %41
  %43 = load ptr, ptr %8, align 8, !tbaa !3
  %44 = getelementptr inbounds nuw %struct.stbtt__csctx, ptr %43, i32 0, i32 5
  store float %42, ptr %44, align 4, !tbaa !78
  %45 = load ptr, ptr %8, align 8, !tbaa !3
  %46 = load ptr, ptr %8, align 8, !tbaa !3
  %47 = getelementptr inbounds nuw %struct.stbtt__csctx, ptr %46, i32 0, i32 4
  %48 = load float, ptr %47, align 8, !tbaa !76
  %49 = fptosi float %48 to i32
  %50 = load ptr, ptr %8, align 8, !tbaa !3
  %51 = getelementptr inbounds nuw %struct.stbtt__csctx, ptr %50, i32 0, i32 5
  %52 = load float, ptr %51, align 4, !tbaa !78
  %53 = fptosi float %52 to i32
  %54 = load float, ptr %15, align 4, !tbaa !67
  %55 = fptosi float %54 to i32
  %56 = load float, ptr %16, align 4, !tbaa !67
  %57 = fptosi float %56 to i32
  %58 = load float, ptr %17, align 4, !tbaa !67
  %59 = fptosi float %58 to i32
  %60 = load float, ptr %18, align 4, !tbaa !67
  %61 = fptosi float %60 to i32
  call void @stbtt__csctx_v(ptr noundef %45, i8 noundef zeroext 4, i32 noundef %49, i32 noundef %53, i32 noundef %55, i32 noundef %57, i32 noundef %59, i32 noundef %61)
  call void @llvm.lifetime.end.p0(i64 4, ptr %18) #8
  call void @llvm.lifetime.end.p0(i64 4, ptr %17) #8
  call void @llvm.lifetime.end.p0(i64 4, ptr %16) #8
  call void @llvm.lifetime.end.p0(i64 4, ptr %15) #8
  ret void
}