; Function Attrs: mustprogress nofree norecurse nosync nounwind willreturn memory(write, argmem: readwrite, inaccessiblemem: none) uwtable
define void @stbtt__csctx_rccurve_to(ptr noundef captures(none) %0, float noundef %1, float noundef %2, float noundef %3, float noundef %4, float noundef %5, float noundef %6) local_unnamed_addr #18 {
  %8 = getelementptr inbounds nuw i8, ptr %0, i64 16
  %9 = load float, ptr %8, align 8, !tbaa !67
  %10 = fadd float %1, %9
  %11 = getelementptr inbounds nuw i8, ptr %0, i64 20
  %12 = load float, ptr %11, align 4, !tbaa !69
  %13 = fadd float %2, %12
  %14 = fadd float %3, %10
  %15 = fadd float %4, %13
  %16 = fadd float %5, %14
  store float %16, ptr %8, align 8, !tbaa !67
  %17 = fadd float %6, %15
  store float %17, ptr %11, align 4, !tbaa !69
  %18 = fptosi float %16 to i32
  %19 = fptosi float %17 to i32
  %20 = fptosi float %10 to i32
  %21 = fptosi float %13 to i32
  %22 = fptosi float %14 to i32
  %23 = fptosi float %15 to i32
  tail call void @stbtt__csctx_v(ptr noundef %0, i8 noundef zeroext 4, i32 noundef %18, i32 noundef %19, i32 noundef %20, i32 noundef %21, i32 noundef %22, i32 noundef %23)
  ret void
}